; Function Attrs: mustprogress nounwind uwtable
define void @_ZN8facebook3jsi5ValueD2Ev(ptr nocapture noundef nonnull readonly align 8 dereferenceable(16) %this) unnamed_addr #7 align 2 personality ptr @__gxx_personality_v0 {
entry:
  %0 = load i32, ptr %this, align 8
  %cmp = icmp sgt i32 %0, 3
  br i1 %cmp, label %if.then, label %if.end

if.then:                                          ; preds = %entry
  %data_ = getelementptr inbounds i8, ptr %this, i64 8
  %1 = load ptr, ptr %data_, align 8
  %tobool.not.i = icmp eq ptr %1, null
  br i1 %tobool.not.i, label %if.end, label %if.then.i

if.then.i:                                        ; preds = %if.then
  %vtable.i = load ptr, ptr %1, align 8
  %2 = load ptr, ptr %vtable.i, align 8
  invoke void %2(ptr noundef nonnull align 8 dereferenceable(8) %1)
          to label %if.end unwind label %terminate.lpad.i

terminate.lpad.i:                                 ; preds = %if.then.i
  %3 = landingpad { ptr, i32 }
          catch ptr null
  %4 = extractvalue { ptr, i32 } %3, 0
  tail call void @__clang_call_terminate(ptr %4) #22
  unreachable

if.end:                                           ; preds = %if.then.i, %if.then, %entry
  ret void
}